(dp0
I575
I7455
sI607
I7454
sI623
I6015
sI631
I6018
sI635
I6019
sI637
I7456
sI638
I7456
sI127
I7456
sI671
I7454
sI687
I6035
sI695
I6038
sI699
I6039
sI701
I6039
sI702
I7455
sI191
I7455
sI719
I6045
sI727
I6048
sI731
I6049
sI733
I6049
sI734
I6049
sI223
I7454
sI743
I6052
sI747
I6053
sI749
I6053
sI750
I6053
sI239
I5912
sI755
I6054
sI757
I6054
sI758
I6054
sI247
I5915
sI761
I7457
sI762
I7457
sI251
I7457
sI764
I7457
sI253
I7457
sI254
I7457
sI799
I7454
sI815
I6070
sI823
I6073
sI827
I6074
sI829
I6074
sI830
I7455
sI319
I7455
sI847
I6080
sI855
I6083
sI859
I6084
sI861
I6084
sI862
I6084
sI351
I7454
sI871
I6087
sI875
I6088
sI877
I6088
sI878
I6088
sI367
I5946
sI883
I6089
sI885
I6089
sI886
I6089
sI375
I5949
sI889
I6089
sI890
I6089
sI379
I5950
sI892
I7456
sI381
I7456
sI382
I7456
sI911
I6095
sI919
I6098
sI923
I6099
sI925
I6099
sI926
I6099
sI415
I7454
sI935
I6102
sI939
I6103
sI941
I6103
sI942
I6103
sI431
I5966
sI947
I6104
sI949
I6104
sI950
I6104
sI439
I5969
sI953
I6104
sI954
I6104
sI443
I5970
sI956
I6104
sI445
I5970
sI446
I7455
sI967
I6107
sI971
I6108
sI973
I6108
sI974
I6108
sI463
I5976
sI979
I6109
sI981
I6109
sI982
I6109
sI471
I5979
sI985
I6109
sI986
I6109
sI475
I5980
sI988
I6109
sI477
I5980
sI478
I5980
sI995
I7459
sI997
I7459
sI998
I7459
sI487
I5983
sI1001
I7459
sI1002
I7459
sI491
I5984
sI1004
I7459
sI493
I5984
sI494
I5984
sI1009
I7459
sI1010
I7459
sI499
I7458
sI1012
I7459
sI501
I7458
sI502
I7458
sI1016
I7459
sI505
I7458
sI506
I7458
sI508
I7458
s.